target datalayout = "e-m:e-p270:32:32-p271:32:32-p272:64:64-i64:64-i128:128-f80:128-n8:16:32:64-S128"
target triple = "x86_64-pc-linux-gnu"

%struct.ARKodeMemRec = type { ptr, double, ptr, i32, i32, double, double, ptr, i32, double, ptr, i32, i32, ptr, ptr, i32, ptr, ptr, i32, ptr, ptr, ptr, ptr, ptr, ptr, ptr, ptr, ptr, ptr, ptr, ptr, ptr, ptr, ptr, i32, ptr, ptr, i32, ptr, i32, ptr, ptr, ptr, ptr, ptr, ptr, ptr, ptr, ptr, ptr, ptr, ptr, ptr, ptr, ptr, ptr, ptr, ptr, ptr, ptr, ptr, ptr, ptr, ptr, ptr, ptr, i32, ptr, ptr, ptr, ptr, ptr, ptr, ptr, i32, ptr, ptr, ptr, i32, ptr, ptr, ptr, ptr, ptr, ptr, ptr, i32, i32, i32, i32, double, double, double, double, double, double, double, double, double, double, i32, ptr, i64, i32, i32, i32, i32, i64, i64, i32, i64, i64, i64, i64, i64, i64, i64, double, double, double, double, double, i32, double, double, i32, i32, i32, i32, i32, i32, i32, i32, ptr, i32, ptr, ptr, ptr, ptr, i32, i32, i32 }
%struct.ARKodeMRIStepMemRec = type { ptr, ptr, i32, i32, i32, i32, i32, ptr, ptr, i32, i32, i32, ptr, i32, i32, i32, i32, i32, ptr, ptr, ptr, ptr, ptr, ptr, ptr, i32, ptr, i32, ptr, double, double, double, double, i32, double, double, double, double, double, double, i32, i64, i32, i32, i32, ptr, ptr, ptr, ptr, ptr, ptr, ptr, ptr, ptr, double, double, double, i64, i64, i64, i64, i64, i64, i32, i32, i32, double, double, ptr, i32, ptr, ptr }

; Function Attrs: nounwind uwtable
define i32 @mriStep_StageERKNoFast(ptr noundef %0, ptr noundef %1, i32 noundef %2) #0 {
  %4 = alloca i32, align 4
  %5 = alloca ptr, align 8
  %6 = alloca ptr, align 8
  %7 = alloca i32, align 4
  %8 = alloca i32, align 4
  %9 = alloca i32, align 4
  %10 = alloca i32, align 4
  %11 = alloca i32, align 4
  store ptr %0, ptr %5, align 8, !tbaa !17
  store ptr %1, ptr %6, align 8, !tbaa !19
  store i32 %2, ptr %7, align 4, !tbaa !15
  call void @llvm.lifetime.start.p0(i64 4, ptr %8) #8
  call void @llvm.lifetime.start.p0(i64 4, ptr %9) #8
  call void @llvm.lifetime.start.p0(i64 4, ptr %10) #8
  %12 = load ptr, ptr %6, align 8, !tbaa !19
  %13 = getelementptr inbounds nuw %struct.ARKodeMRIStepMemRec, ptr %12, i32 0, i32 12
  %14 = load ptr, ptr %13, align 8, !tbaa !137
  %15 = load i32, ptr %7, align 4, !tbaa !15
  %16 = load ptr, ptr %6, align 8, !tbaa !19
  %17 = getelementptr inbounds nuw %struct.ARKodeMRIStepMemRec, ptr %16, i32 0, i32 18
  %18 = load ptr, ptr %17, align 8, !tbaa !152
  %19 = load ptr, ptr %6, align 8, !tbaa !19
  %20 = getelementptr inbounds nuw %struct.ARKodeMRIStepMemRec, ptr %19, i32 0, i32 20
  %21 = load ptr, ptr %20, align 8, !tbaa !154
  %22 = load ptr, ptr %6, align 8, !tbaa !19
  %23 = getelementptr inbounds nuw %struct.ARKodeMRIStepMemRec, ptr %22, i32 0, i32 21
  %24 = load ptr, ptr %23, align 8, !tbaa !155
  %25 = call i32 @mriStep_RKCoeffs(ptr noundef %14, i32 noundef %15, ptr noundef %18, ptr noundef %21, ptr noundef %24)
  store i32 %25, ptr %8, align 4, !tbaa !15
  %26 = load i32, ptr %8, align 4, !tbaa !15
  %27 = icmp ne i32 %26, 0
  br i1 %27, label %28, label %30

28:                                               ; preds = %3
  %29 = load i32, ptr %8, align 4, !tbaa !15
  store i32 %29, ptr %4, align 4
  store i32 1, ptr %11, align 4
  br label %196

30:                                               ; preds = %3
  %31 = load ptr, ptr %6, align 8, !tbaa !19
  %32 = getelementptr inbounds nuw %struct.ARKodeMRIStepMemRec, ptr %31, i32 0, i32 70
  %33 = load ptr, ptr %32, align 8, !tbaa !103
  %34 = getelementptr inbounds double, ptr %33, i64 0
  store double 1.000000e+00, ptr %34, align 8, !tbaa !7
  %35 = load ptr, ptr %5, align 8, !tbaa !17
  %36 = getelementptr inbounds nuw %struct.ARKodeMemRec, ptr %35, i32 0, i32 75
  %37 = load ptr, ptr %36, align 8, !tbaa !193
  %38 = load ptr, ptr %6, align 8, !tbaa !19
  %39 = getelementptr inbounds nuw %struct.ARKodeMRIStepMemRec, ptr %38, i32 0, i32 71
  %40 = load ptr, ptr %39, align 8, !tbaa !104
  %41 = getelementptr inbounds ptr, ptr %40, i64 0
  store ptr %37, ptr %41, align 8, !tbaa !9
  store i32 1, ptr %10, align 4, !tbaa !15
  store i32 0, ptr %9, align 4, !tbaa !15
  br label %42

42:                                               ; preds = %177, %30
  %43 = load i32, ptr %9, align 4, !tbaa !15
  %44 = load i32, ptr %7, align 4, !tbaa !15
  %45 = load ptr, ptr %6, align 8, !tbaa !19
  %46 = getelementptr inbounds nuw %struct.ARKodeMRIStepMemRec, ptr %45, i32 0, i32 15
  %47 = load i32, ptr %46, align 8, !tbaa !142
  %48 = icmp slt i32 %44, %47
  br i1 %48, label %49, label %51

49:                                               ; preds = %42
  %50 = load i32, ptr %7, align 4, !tbaa !15
  br label %55

51:                                               ; preds = %42
  %52 = load ptr, ptr %6, align 8, !tbaa !19
  %53 = getelementptr inbounds nuw %struct.ARKodeMRIStepMemRec, ptr %52, i32 0, i32 15
  %54 = load i32, ptr %53, align 8, !tbaa !142
  br label %55

55:                                               ; preds = %51, %49
  %56 = phi i32 [ %50, %49 ], [ %54, %51 ]
  %57 = icmp slt i32 %43, %56
  br i1 %57, label %58, label %180

58:                                               ; preds = %55
  %59 = load ptr, ptr %6, align 8, !tbaa !19
  %60 = getelementptr inbounds nuw %struct.ARKodeMRIStepMemRec, ptr %59, i32 0, i32 4
  %61 = load i32, ptr %60, align 8, !tbaa !81
  %62 = icmp ne i32 %61, 0
  br i1 %62, label %63, label %117

63:                                               ; preds = %58
  %64 = load ptr, ptr %6, align 8, !tbaa !19
  %65 = getelementptr inbounds nuw %struct.ARKodeMRIStepMemRec, ptr %64, i32 0, i32 18
  %66 = load ptr, ptr %65, align 8, !tbaa !152
  %67 = load i32, ptr %9, align 4, !tbaa !15
  %68 = sext i32 %67 to i64
  %69 = getelementptr inbounds i32, ptr %66, i64 %68
  %70 = load i32, ptr %69, align 4, !tbaa !15
  %71 = icmp sgt i32 %70, -1
  br i1 %71, label %72, label %117

72:                                               ; preds = %63
  %73 = load ptr, ptr %5, align 8, !tbaa !17
  %74 = getelementptr inbounds nuw %struct.ARKodeMemRec, ptr %73, i32 0, i32 92
  %75 = load double, ptr %74, align 8, !tbaa !192
  %76 = load ptr, ptr %6, align 8, !tbaa !19
  %77 = getelementptr inbounds nuw %struct.ARKodeMRIStepMemRec, ptr %76, i32 0, i32 20
  %78 = load ptr, ptr %77, align 8, !tbaa !154
  %79 = load ptr, ptr %6, align 8, !tbaa !19
  %80 = getelementptr inbounds nuw %struct.ARKodeMRIStepMemRec, ptr %79, i32 0, i32 18
  %81 = load ptr, ptr %80, align 8, !tbaa !152
  %82 = load i32, ptr %9, align 4, !tbaa !15
  %83 = sext i32 %82 to i64
  %84 = getelementptr inbounds i32, ptr %81, i64 %83
  %85 = load i32, ptr %84, align 4, !tbaa !15
  %86 = sext i32 %85 to i64
  %87 = getelementptr inbounds double, ptr %78, i64 %86
  %88 = load double, ptr %87, align 8, !tbaa !7
  %89 = fmul double %75, %88
  %90 = load ptr, ptr %6, align 8, !tbaa !19
  %91 = getelementptr inbounds nuw %struct.ARKodeMRIStepMemRec, ptr %90, i32 0, i32 70
  %92 = load ptr, ptr %91, align 8, !tbaa !103
  %93 = load i32, ptr %10, align 4, !tbaa !15
  %94 = sext i32 %93 to i64
  %95 = getelementptr inbounds double, ptr %92, i64 %94
  store double %89, ptr %95, align 8, !tbaa !7
  %96 = load ptr, ptr %6, align 8, !tbaa !19
  %97 = getelementptr inbounds nuw %struct.ARKodeMRIStepMemRec, ptr %96, i32 0, i32 7
  %98 = load ptr, ptr %97, align 8, !tbaa !162
  %99 = load ptr, ptr %6, align 8, !tbaa !19
  %100 = getelementptr inbounds nuw %struct.ARKodeMRIStepMemRec, ptr %99, i32 0, i32 18
  %101 = load ptr, ptr %100, align 8, !tbaa !152
  %102 = load i32, ptr %9, align 4, !tbaa !15
  %103 = sext i32 %102 to i64
  %104 = getelementptr inbounds i32, ptr %101, i64 %103
  %105 = load i32, ptr %104, align 4, !tbaa !15
  %106 = sext i32 %105 to i64
  %107 = getelementptr inbounds ptr, ptr %98, i64 %106
  %108 = load ptr, ptr %107, align 8, !tbaa !9
  %109 = load ptr, ptr %6, align 8, !tbaa !19
  %110 = getelementptr inbounds nuw %struct.ARKodeMRIStepMemRec, ptr %109, i32 0, i32 71
  %111 = load ptr, ptr %110, align 8, !tbaa !104
  %112 = load i32, ptr %10, align 4, !tbaa !15
  %113 = sext i32 %112 to i64
  %114 = getelementptr inbounds ptr, ptr %111, i64 %113
  store ptr %108, ptr %114, align 8, !tbaa !9
  %115 = load i32, ptr %10, align 4, !tbaa !15
  %116 = add nsw i32 %115, 1
  store i32 %116, ptr %10, align 4, !tbaa !15
  br label %117

117:                                              ; preds = %72, %63, %58
  %118 = load ptr, ptr %6, align 8, !tbaa !19
  %119 = getelementptr inbounds nuw %struct.ARKodeMRIStepMemRec, ptr %118, i32 0, i32 5
  %120 = load i32, ptr %119, align 4, !tbaa !82
  %121 = icmp ne i32 %120, 0
  br i1 %121, label %122, label %176

122:                                              ; preds = %117
  %123 = load ptr, ptr %6, align 8, !tbaa !19
  %124 = getelementptr inbounds nuw %struct.ARKodeMRIStepMemRec, ptr %123, i32 0, i32 18
  %125 = load ptr, ptr %124, align 8, !tbaa !152
  %126 = load i32, ptr %9, align 4, !tbaa !15
  %127 = sext i32 %126 to i64
  %128 = getelementptr inbounds i32, ptr %125, i64 %127
  %129 = load i32, ptr %128, align 4, !tbaa !15
  %130 = icmp sgt i32 %129, -1
  br i1 %130, label %131, label %176

131:                                              ; preds = %122
  %132 = load ptr, ptr %5, align 8, !tbaa !17
  %133 = getelementptr inbounds nuw %struct.ARKodeMemRec, ptr %132, i32 0, i32 92
  %134 = load double, ptr %133, align 8, !tbaa !192
  %135 = load ptr, ptr %6, align 8, !tbaa !19
  %136 = getelementptr inbounds nuw %struct.ARKodeMRIStepMemRec, ptr %135, i32 0, i32 21
  %137 = load ptr, ptr %136, align 8, !tbaa !155
  %138 = load ptr, ptr %6, align 8, !tbaa !19
  %139 = getelementptr inbounds nuw %struct.ARKodeMRIStepMemRec, ptr %138, i32 0, i32 18
  %140 = load ptr, ptr %139, align 8, !tbaa !152
  %141 = load i32, ptr %9, align 4, !tbaa !15
  %142 = sext i32 %141 to i64
  %143 = getelementptr inbounds i32, ptr %140, i64 %142
  %144 = load i32, ptr %143, align 4, !tbaa !15
  %145 = sext i32 %144 to i64
  %146 = getelementptr inbounds double, ptr %137, i64 %145
  %147 = load double, ptr %146, align 8, !tbaa !7
  %148 = fmul double %134, %147
  %149 = load ptr, ptr %6, align 8, !tbaa !19
  %150 = getelementptr inbounds nuw %struct.ARKodeMRIStepMemRec, ptr %149, i32 0, i32 70
  %151 = load ptr, ptr %150, align 8, !tbaa !103
  %152 = load i32, ptr %10, align 4, !tbaa !15
  %153 = sext i32 %152 to i64
  %154 = getelementptr inbounds double, ptr %151, i64 %153
  store double %148, ptr %154, align 8, !tbaa !7
  %155 = load ptr, ptr %6, align 8, !tbaa !19
  %156 = getelementptr inbounds nuw %struct.ARKodeMRIStepMemRec, ptr %155, i32 0, i32 8
  %157 = load ptr, ptr %156, align 8, !tbaa !161
  %158 = load ptr, ptr %6, align 8, !tbaa !19
  %159 = getelementptr inbounds nuw %struct.ARKodeMRIStepMemRec, ptr %158, i32 0, i32 18
  %160 = load ptr, ptr %159, align 8, !tbaa !152
  %161 = load i32, ptr %9, align 4, !tbaa !15
  %162 = sext i32 %161 to i64
  %163 = getelementptr inbounds i32, ptr %160, i64 %162
  %164 = load i32, ptr %163, align 4, !tbaa !15
  %165 = sext i32 %164 to i64
  %166 = getelementptr inbounds ptr, ptr %157, i64 %165
  %167 = load ptr, ptr %166, align 8, !tbaa !9
  %168 = load ptr, ptr %6, align 8, !tbaa !19
  %169 = getelementptr inbounds nuw %struct.ARKodeMRIStepMemRec, ptr %168, i32 0, i32 71
  %170 = load ptr, ptr %169, align 8, !tbaa !104
  %171 = load i32, ptr %10, align 4, !tbaa !15
  %172 = sext i32 %171 to i64
  %173 = getelementptr inbounds ptr, ptr %170, i64 %172
  store ptr %167, ptr %173, align 8, !tbaa !9
  %174 = load i32, ptr %10, align 4, !tbaa !15
  %175 = add nsw i32 %174, 1
  store i32 %175, ptr %10, align 4, !tbaa !15
  br label %176

176:                                              ; preds = %131, %122, %117
  br label %177

177:                                              ; preds = %176
  %178 = load i32, ptr %9, align 4, !tbaa !15
  %179 = add nsw i32 %178, 1
  store i32 %179, ptr %9, align 4, !tbaa !15
  br label %42

180:                                              ; preds = %55
  %181 = load i32, ptr %10, align 4, !tbaa !15
  %182 = load ptr, ptr %6, align 8, !tbaa !19
  %183 = getelementptr inbounds nuw %struct.ARKodeMRIStepMemRec, ptr %182, i32 0, i32 70
  %184 = load ptr, ptr %183, align 8, !tbaa !103
  %185 = load ptr, ptr %6, align 8, !tbaa !19
  %186 = getelementptr inbounds nuw %struct.ARKodeMRIStepMemRec, ptr %185, i32 0, i32 71
  %187 = load ptr, ptr %186, align 8, !tbaa !104
  %188 = load ptr, ptr %5, align 8, !tbaa !17
  %189 = getelementptr inbounds nuw %struct.ARKodeMemRec, ptr %188, i32 0, i32 75
  %190 = load ptr, ptr %189, align 8, !tbaa !193
  %191 = call i32 @N_VLinearCombination(i32 noundef %181, ptr noundef %184, ptr noundef %187, ptr noundef %190)
  store i32 %191, ptr %8, align 4, !tbaa !15
  %192 = load i32, ptr %8, align 4, !tbaa !15
  %193 = icmp ne i32 %192, 0
  br i1 %193, label %194, label %195

194:                                              ; preds = %180
  store i32 -28, ptr %4, align 4
  store i32 1, ptr %11, align 4
  br label %196

195:                                              ; preds = %180
  store i32 0, ptr %4, align 4
  store i32 1, ptr %11, align 4
  br label %196

196:                                              ; preds = %195, %194, %28
  call void @llvm.lifetime.end.p0(i64 4, ptr %10) #8
  call void @llvm.lifetime.end.p0(i64 4, ptr %9) #8
  call void @llvm.lifetime.end.p0(i64 4, ptr %8) #8
  %197 = load i32, ptr %4, align 4
  ret i32 %197
}