; Function Attrs: nounwind uwtable
define range(i32 -41, 1) i32 @mriStep_StageERKNoFast(ptr noundef readonly captures(none) %0, ptr noundef readonly captures(none) %1, i32 noundef %2) local_unnamed_addr #0 {
  %4 = getelementptr inbounds nuw i8, ptr %1, i64 72
  %5 = load ptr, ptr %4, align 8, !tbaa !125
  %6 = getelementptr inbounds nuw i8, ptr %1, i64 104
  %7 = load ptr, ptr %6, align 8, !tbaa !141
  %8 = getelementptr inbounds nuw i8, ptr %1, i64 120
  %9 = load ptr, ptr %8, align 8, !tbaa !143
  %10 = getelementptr inbounds nuw i8, ptr %1, i64 128
  %11 = load ptr, ptr %10, align 8, !tbaa !144
  %12 = tail call i32 @mriStep_RKCoeffs(ptr noundef %5, i32 noundef %2, ptr noundef %7, ptr noundef %9, ptr noundef %11)
  %.not = icmp eq i32 %12, 0
  br i1 %.not, label %13, label %101

13:                                               ; preds = %3
  %14 = getelementptr inbounds nuw i8, ptr %1, i64 504
  %15 = load ptr, ptr %14, align 8, !tbaa !93
  store double 1.000000e+00, ptr %15, align 8, !tbaa !115
  %16 = getelementptr inbounds nuw i8, ptr %0, i64 584
  %17 = load ptr, ptr %16, align 8, !tbaa !186
  %18 = getelementptr inbounds nuw i8, ptr %1, i64 512
  %19 = load ptr, ptr %18, align 8, !tbaa !94
  store ptr %17, ptr %19, align 8, !tbaa !167
  %20 = getelementptr inbounds nuw i8, ptr %1, i64 88
  %21 = load i32, ptr %20, align 8, !tbaa !131
  %. = tail call i32 @llvm.smin.i32(i32 %2, i32 %21)
  %22 = icmp sgt i32 %., 0
  br i1 %22, label %.lr.ph, label %._crit_edge

.lr.ph:                                           ; preds = %13
  %23 = getelementptr inbounds nuw i8, ptr %1, i64 24
  %24 = load i32, ptr %23, align 8, !tbaa !83
  %.not59 = icmp eq i32 %24, 0
  %25 = getelementptr inbounds nuw i8, ptr %0, i64 704
  %26 = getelementptr inbounds nuw i8, ptr %1, i64 40
  %27 = getelementptr inbounds nuw i8, ptr %1, i64 28
  %28 = load i32, ptr %27, align 4, !tbaa !84
  %.not60 = icmp eq i32 %28, 0
  %29 = getelementptr inbounds nuw i8, ptr %1, i64 48
  br i1 %.not59, label %.lr.ph.split.us, label %.lr.ph.split

.lr.ph.split.us:                                  ; preds = %.lr.ph
  br i1 %.not60, label %._crit_edge, label %.lr.ph.split.us.split

.lr.ph.split.us.split:                            ; preds = %.lr.ph.split.us
  %30 = load ptr, ptr %6, align 8, !tbaa !141
  %wide.trip.count83 = zext nneg i32 %. to i64
  br label %31

31:                                               ; preds = %49, %.lr.ph.split.us.split
  %indvars.iv80 = phi i64 [ %indvars.iv.next81, %49 ], [ 0, %.lr.ph.split.us.split ]
  %.063.us = phi i32 [ %.2.us, %49 ], [ 1, %.lr.ph.split.us.split ]
  %32 = getelementptr inbounds nuw i32, ptr %30, i64 %indvars.iv80
  %33 = load i32, ptr %32, align 4, !tbaa !119
  %34 = icmp sgt i32 %33, -1
  br i1 %34, label %35, label %49

35:                                               ; preds = %31
  %36 = load double, ptr %25, align 8, !tbaa !185
  %37 = load ptr, ptr %10, align 8, !tbaa !144
  %38 = zext nneg i32 %33 to i64
  %39 = getelementptr inbounds nuw double, ptr %37, i64 %38
  %40 = load double, ptr %39, align 8, !tbaa !115
  %41 = fmul double %36, %40
  %42 = sext i32 %.063.us to i64
  %43 = getelementptr inbounds double, ptr %15, i64 %42
  store double %41, ptr %43, align 8, !tbaa !115
  %44 = load ptr, ptr %29, align 8, !tbaa !150
  %45 = getelementptr inbounds nuw ptr, ptr %44, i64 %38
  %46 = load ptr, ptr %45, align 8, !tbaa !167
  %47 = getelementptr inbounds ptr, ptr %19, i64 %42
  store ptr %46, ptr %47, align 8, !tbaa !167
  %48 = add nsw i32 %.063.us, 1
  br label %49

49:                                               ; preds = %35, %31
  %.2.us = phi i32 [ %48, %35 ], [ %.063.us, %31 ]
  %indvars.iv.next81 = add nuw nsw i64 %indvars.iv80, 1
  %exitcond84.not = icmp eq i64 %indvars.iv.next81, %wide.trip.count83
  br i1 %exitcond84.not, label %._crit_edge, label %31

.lr.ph.split:                                     ; preds = %.lr.ph
  %50 = load ptr, ptr %6, align 8, !tbaa !141
  %wide.trip.count78 = zext nneg i32 %. to i64
  br i1 %.not60, label %.lr.ph.split.split.us, label %.lr.ph.split.split

.lr.ph.split.split.us:                            ; preds = %.lr.ph.split, %68
  %indvars.iv75 = phi i64 [ %indvars.iv.next76, %68 ], [ 0, %.lr.ph.split ]
  %.063.us64 = phi i32 [ %.1.us66, %68 ], [ 1, %.lr.ph.split ]
  %51 = getelementptr inbounds nuw i32, ptr %50, i64 %indvars.iv75
  %52 = load i32, ptr %51, align 4, !tbaa !119
  %53 = icmp sgt i32 %52, -1
  br i1 %53, label %54, label %68

54:                                               ; preds = %.lr.ph.split.split.us
  %55 = load double, ptr %25, align 8, !tbaa !185
  %56 = load ptr, ptr %8, align 8, !tbaa !143
  %57 = zext nneg i32 %52 to i64
  %58 = getelementptr inbounds nuw double, ptr %56, i64 %57
  %59 = load double, ptr %58, align 8, !tbaa !115
  %60 = fmul double %55, %59
  %61 = sext i32 %.063.us64 to i64
  %62 = getelementptr inbounds double, ptr %15, i64 %61
  store double %60, ptr %62, align 8, !tbaa !115
  %63 = load ptr, ptr %26, align 8, !tbaa !151
  %64 = getelementptr inbounds nuw ptr, ptr %63, i64 %57
  %65 = load ptr, ptr %64, align 8, !tbaa !167
  %66 = getelementptr inbounds ptr, ptr %19, i64 %61
  store ptr %65, ptr %66, align 8, !tbaa !167
  %67 = add nsw i32 %.063.us64, 1
  br label %68

68:                                               ; preds = %54, %.lr.ph.split.split.us
  %.1.us66 = phi i32 [ %67, %54 ], [ %.063.us64, %.lr.ph.split.split.us ]
  %indvars.iv.next76 = add nuw nsw i64 %indvars.iv75, 1
  %exitcond79.not = icmp eq i64 %indvars.iv.next76, %wide.trip.count78
  br i1 %exitcond79.not, label %._crit_edge, label %.lr.ph.split.split.us

.lr.ph.split.split:                               ; preds = %.lr.ph.split, %98
  %indvars.iv = phi i64 [ %indvars.iv.next, %98 ], [ 0, %.lr.ph.split ]
  %.063 = phi i32 [ %.2, %98 ], [ 1, %.lr.ph.split ]
  %69 = getelementptr inbounds nuw i32, ptr %50, i64 %indvars.iv
  %70 = load i32, ptr %69, align 4, !tbaa !119
  %71 = icmp sgt i32 %70, -1
  br i1 %71, label %72, label %98

72:                                               ; preds = %.lr.ph.split.split
  %73 = load double, ptr %25, align 8, !tbaa !185
  %74 = load ptr, ptr %8, align 8, !tbaa !143
  %75 = zext nneg i32 %70 to i64
  %76 = getelementptr inbounds nuw double, ptr %74, i64 %75
  %77 = load double, ptr %76, align 8, !tbaa !115
  %78 = fmul double %73, %77
  %79 = sext i32 %.063 to i64
  %80 = getelementptr inbounds double, ptr %15, i64 %79
  store double %78, ptr %80, align 8, !tbaa !115
  %81 = load ptr, ptr %26, align 8, !tbaa !151
  %82 = getelementptr inbounds nuw ptr, ptr %81, i64 %75
  %83 = load ptr, ptr %82, align 8, !tbaa !167
  %84 = getelementptr inbounds ptr, ptr %19, i64 %79
  store ptr %83, ptr %84, align 8, !tbaa !167
  %85 = add nsw i32 %.063, 1
  %86 = load double, ptr %25, align 8, !tbaa !185
  %87 = load ptr, ptr %10, align 8, !tbaa !144
  %88 = zext nneg i32 %70 to i64
  %89 = getelementptr inbounds nuw double, ptr %87, i64 %88
  %90 = load double, ptr %89, align 8, !tbaa !115
  %91 = fmul double %86, %90
  %92 = sext i32 %85 to i64
  %93 = getelementptr inbounds double, ptr %15, i64 %92
  store double %91, ptr %93, align 8, !tbaa !115
  %94 = load ptr, ptr %29, align 8, !tbaa !150
  %95 = getelementptr inbounds nuw ptr, ptr %94, i64 %88
  %96 = load ptr, ptr %95, align 8, !tbaa !167
  %97 = getelementptr inbounds ptr, ptr %19, i64 %92
  store ptr %96, ptr %97, align 8, !tbaa !167
  %.reass = add i32 %.063, 2
  br label %98

98:                                               ; preds = %.lr.ph.split.split, %72
  %.2 = phi i32 [ %.reass, %72 ], [ %.063, %.lr.ph.split.split ]
  %indvars.iv.next = add nuw nsw i64 %indvars.iv, 1
  %exitcond.not = icmp eq i64 %indvars.iv.next, %wide.trip.count78
  br i1 %exitcond.not, label %._crit_edge, label %.lr.ph.split.split

._crit_edge:                                      ; preds = %98, %68, %49, %.lr.ph.split.us, %13
  %.0.lcssa = phi i32 [ 1, %13 ], [ 1, %.lr.ph.split.us ], [ %.2.us, %49 ], [ %.1.us66, %68 ], [ %.2, %98 ]
  %99 = load ptr, ptr %16, align 8, !tbaa !186
  %100 = tail call i32 @N_VLinearCombination(i32 noundef %.0.lcssa, ptr noundef nonnull %15, ptr noundef nonnull %19, ptr noundef %99) #14
  %.not58 = icmp eq i32 %100, 0
  %.61 = select i1 %.not58, i32 0, i32 -28
  br label %101

101:                                              ; preds = %._crit_edge, %3
  %.052 = phi i32 [ %12, %3 ], [ %.61, %._crit_edge ]
  ret i32 %.052
}